; Function Attrs: mustprogress nounwind uwtable
define hidden noundef ptr @_ZN6hermes9IRBuilder16createIdentifierEN4llvh9StringRefE(ptr noundef nonnull readonly align 8 captures(none) dereferenceable(40) %this, ptr %str.coerce0, i64 %str.coerce1) local_unnamed_addr #0 align 2 {
entry:
  %0 = load ptr, ptr %this, align 8
  %Ctx.i = getelementptr inbounds nuw i8, ptr %0, i64 40
  %1 = load ptr, ptr %Ctx.i, align 8
  %stringTable_.i = getelementptr inbounds nuw i8, ptr %1, i64 72
  %call.i.i = tail call noundef ptr @_ZN6hermes11StringTable9getStringEN4llvh9StringRefE(ptr noundef nonnull align 8 dereferenceable(32) %stringTable_.i, ptr %str.coerce0, i64 %str.coerce1)
  ret ptr %call.i.i
}